target datalayout = "e-m:e-p270:32:32-p271:32:32-p272:64:64-i64:64-i128:128-f80:128-n8:16:32:64-S128"
target triple = "x86_64-unknown-linux-gnu"

%class.symbol = type { ptr }
%"class.spacer::prop_solver" = type <{ ptr, %class.symbol, [2 x %class.ref], [2 x %class.scoped_ptr], ptr, %class.ptr_vector, %class.ref_vector, %class.ref_vector, %class.obj_hashtable, ptr, ptr, i8, [3 x i8], i32, i8, i8, i8, i8, i32, %class.random_gen, [4 x i8] }>
%class.ref = type { ptr }
%class.scoped_ptr = type { ptr }
%class.ptr_vector = type { %class.vector }
%class.vector = type { ptr }
%class.ref_vector = type { %class.ref_vector_core }
%class.ref_vector_core = type { %class.ref_manager_wrapper, %class.ptr_vector.0 }
%class.ref_manager_wrapper = type { ptr }
%class.ptr_vector.0 = type { %class.vector.1 }
%class.vector.1 = type { ptr }
%class.obj_hashtable = type { %class.core_hashtable.base, [4 x i8] }
%class.core_hashtable.base = type <{ ptr, i32, i32, i32 }>
%class.random_gen = type { i32 }

; Function Attrs: mustprogress nounwind uwtable
define linkonce_odr hidden noundef nonnull align 8 dereferenceable(8) ptr @_ZNK6vectorIP3appLb0EjEixEj(ptr noundef nonnull align 8 dereferenceable(8) %this, i32 noundef %idx) #6 comdat align 2 {
entry:
  %this.addr = alloca ptr, align 8
  %idx.addr = alloca i32, align 4
  store ptr %this, ptr %this.addr, align 8
  store i32 %idx, ptr %idx.addr, align 4
  %this1 = load ptr, ptr %this.addr, align 8
  %m_data = getelementptr inbounds %class.vector.1, ptr %this1, i32 0, i32 0
  %0 = load ptr, ptr %m_data, align 8
  %1 = load i32, ptr %idx.addr, align 4
  %idxprom = zext i32 %1 to i64
  %arrayidx = getelementptr inbounds ptr, ptr %0, i64 %idxprom
  ret ptr %arrayidx
}

; Function Attrs: mustprogress nounwind uwtable
define linkonce_odr hidden noundef i32 @_ZNK6vectorIP9func_declLb0EjE4sizeEv(ptr noundef nonnull align 8 dereferenceable(8) %this) #6 comdat align 2 {
entry:
  %retval = alloca i32, align 4
  %this.addr = alloca ptr, align 8
  store ptr %this, ptr %this.addr, align 8
  %this1 = load ptr, ptr %this.addr, align 8
  %m_data = getelementptr inbounds %class.vector, ptr %this1, i32 0, i32 0
  %0 = load ptr, ptr %m_data, align 8
  %cmp = icmp eq ptr %0, null
  br i1 %cmp, label %if.then, label %if.end

if.then:                                          ; preds = %entry
  store i32 0, ptr %retval, align 4
  br label %return

if.end:                                           ; preds = %entry
  %m_data2 = getelementptr inbounds %class.vector, ptr %this1, i32 0, i32 0
  %1 = load ptr, ptr %m_data2, align 8
  %arrayidx = getelementptr inbounds i32, ptr %1, i64 -1
  %2 = load i32, ptr %arrayidx, align 4
  store i32 %2, ptr %retval, align 4
  br label %return

return:                                           ; preds = %if.end, %if.then
  %3 = load i32, ptr %retval, align 4
  ret i32 %3
}

; Function Attrs: mustprogress uwtable
define linkonce_odr hidden noundef ptr @_ZNK15ref_vector_coreI3app19ref_manager_wrapperIS0_11ast_managerEE3getEj(ptr noundef nonnull align 8 dereferenceable(16) %this, i32 noundef %idx) #4 comdat align 2 {
entry:
  %this.addr = alloca ptr, align 8
  %idx.addr = alloca i32, align 4
  store ptr %this, ptr %this.addr, align 8
  store i32 %idx, ptr %idx.addr, align 4
  %this1 = load ptr, ptr %this.addr, align 8
  %m_nodes = getelementptr inbounds %class.ref_vector_core, ptr %this1, i32 0, i32 1
  %0 = load i32, ptr %idx.addr, align 4
  %call = call noundef nonnull align 8 dereferenceable(8) ptr @_ZNK6vectorIP3appLb0EjEixEj(ptr noundef nonnull align 8 dereferenceable(8) %m_nodes, i32 noundef %0)
  %1 = load ptr, ptr %call, align 8
  ret ptr %1
}

; Function Attrs: mustprogress uwtable
define hidden noundef i32 @_ZNK6spacer11prop_solver9level_cntEv(ptr noundef nonnull align 8 dereferenceable(156) %this) #4 align 2 {
entry:
  %this.addr = alloca ptr, align 8
  store ptr %this, ptr %this.addr, align 8
  %this1 = load ptr, ptr %this.addr, align 8
  %m_level_preds = getelementptr inbounds %"class.spacer::prop_solver", ptr %this1, i32 0, i32 5
  %call = call noundef i32 @_ZNK6vectorIP9func_declLb0EjE4sizeEv(ptr noundef nonnull align 8 dereferenceable(8) %m_level_preds)
  ret i32 %call
}

; Function Attrs: mustprogress uwtable
define hidden void @_ZN6spacer11prop_solver18assert_level_atomsEj(ptr noundef nonnull align 8 dereferenceable(156) %this, i32 noundef %level) #4 align 2 {
entry:
  %this.addr = alloca ptr, align 8
  %level.addr = alloca i32, align 4
  %lev_cnt = alloca i32, align 4
  %i = alloca i32, align 4
  %active = alloca i8, align 1
  %lev_atom = alloca ptr, align 8
  store ptr %this, ptr %this.addr, align 8
  store i32 %level, ptr %level.addr, align 4
  %this1 = load ptr, ptr %this.addr, align 8
  %call = call noundef i32 @_ZNK6spacer11prop_solver9level_cntEv(ptr noundef nonnull align 8 dereferenceable(156) %this1)
  store i32 %call, ptr %lev_cnt, align 4
  store i32 0, ptr %i, align 4
  br label %for.cond

for.cond:                                         ; preds = %for.inc, %entry
  %0 = load i32, ptr %i, align 4
  %1 = load i32, ptr %lev_cnt, align 4
  %cmp = icmp ult i32 %0, %1
  br i1 %cmp, label %for.body, label %for.end

for.body:                                         ; preds = %for.cond
  %m_delta_level = getelementptr inbounds %"class.spacer::prop_solver", ptr %this1, i32 0, i32 14
  %2 = load i8, ptr %m_delta_level, align 8
  %tobool = trunc i8 %2 to i1
  br i1 %tobool, label %cond.true, label %cond.false

cond.true:                                        ; preds = %for.body
  %3 = load i32, ptr %i, align 4
  %4 = load i32, ptr %level.addr, align 4
  %cmp2 = icmp eq i32 %3, %4
  br label %cond.end

cond.false:                                       ; preds = %for.body
  %5 = load i32, ptr %i, align 4
  %6 = load i32, ptr %level.addr, align 4
  %cmp3 = icmp uge i32 %5, %6
  br label %cond.end

cond.end:                                         ; preds = %cond.false, %cond.true
  %cond = phi i1 [ %cmp2, %cond.true ], [ %cmp3, %cond.false ]
  %frombool = zext i1 %cond to i8
  store i8 %frombool, ptr %active, align 1
  %7 = load i8, ptr %active, align 1
  %tobool4 = trunc i8 %7 to i1
  br i1 %tobool4, label %cond.true5, label %cond.false7

cond.true5:                                       ; preds = %cond.end
  %m_neg_level_atoms = getelementptr inbounds %"class.spacer::prop_solver", ptr %this1, i32 0, i32 7
  %8 = load i32, ptr %i, align 4
  %call6 = call noundef ptr @_ZNK15ref_vector_coreI3app19ref_manager_wrapperIS0_11ast_managerEE3getEj(ptr noundef nonnull align 8 dereferenceable(16) %m_neg_level_atoms, i32 noundef %8)
  br label %cond.end9

cond.false7:                                      ; preds = %cond.end
  %m_pos_level_atoms = getelementptr inbounds %"class.spacer::prop_solver", ptr %this1, i32 0, i32 6
  %9 = load i32, ptr %i, align 4
  %call8 = call noundef ptr @_ZNK15ref_vector_coreI3app19ref_manager_wrapperIS0_11ast_managerEE3getEj(ptr noundef nonnull align 8 dereferenceable(16) %m_pos_level_atoms, i32 noundef %9)
  br label %cond.end9

cond.end9:                                        ; preds = %cond.false7, %cond.true5
  %cond10 = phi ptr [ %call6, %cond.true5 ], [ %call8, %cond.false7 ]
  store ptr %cond10, ptr %lev_atom, align 8
  %m_ctx = getelementptr inbounds %"class.spacer::prop_solver", ptr %this1, i32 0, i32 4
  %10 = load ptr, ptr %m_ctx, align 8
  %11 = load ptr, ptr %lev_atom, align 8
  call void @_ZN6spacer10iuc_solver7push_bgEP4expr(ptr noundef nonnull align 8 dereferenceable(398) %10, ptr noundef %11)
  br label %for.inc

for.inc:                                          ; preds = %cond.end9
  %12 = load i32, ptr %i, align 4
  %inc = add i32 %12, 1
  store i32 %inc, ptr %i, align 4
  br label %for.cond, !llvm.loop !8

for.end:                                          ; preds = %for.cond
  ret void
}