; Function Attrs: mustprogress uwtable
define hidden void @_ZN6spacer11prop_solver18assert_level_atomsEj(ptr nocapture noundef nonnull readonly align 8 dereferenceable(156) %this, i32 noundef %level) local_unnamed_addr #3 align 2 {
entry:
  %m_level_preds.i = getelementptr inbounds i8, ptr %this, i64 56
  %0 = load ptr, ptr %m_level_preds.i, align 8
  %cmp.i.i = icmp eq ptr %0, null
  br i1 %cmp.i.i, label %for.end, label %_ZNK6spacer11prop_solver9level_cntEv.exit

_ZNK6spacer11prop_solver9level_cntEv.exit:        ; preds = %entry
  %arrayidx.i.i = getelementptr inbounds i8, ptr %0, i64 -4
  %1 = load i32, ptr %arrayidx.i.i, align 4
  %cmp11.not = icmp eq i32 %1, 0
  br i1 %cmp11.not, label %for.end, label %for.body.lr.ph

for.body.lr.ph:                                   ; preds = %_ZNK6spacer11prop_solver9level_cntEv.exit
  %m_delta_level = getelementptr inbounds i8, ptr %this, i64 144
  %m_nodes.i = getelementptr inbounds i8, ptr %this, i64 88
  %m_nodes.i8 = getelementptr inbounds i8, ptr %this, i64 72
  %m_ctx = getelementptr inbounds i8, ptr %this, i64 48
  %2 = zext i32 %level to i64
  %wide.trip.count = zext i32 %1 to i64
  br label %for.body

for.body:                                         ; preds = %for.body.lr.ph, %for.body
  %indvars.iv = phi i64 [ 0, %for.body.lr.ph ], [ %indvars.iv.next, %for.body ]
  %3 = load i8, ptr %m_delta_level, align 8
  %4 = and i8 %3, 1
  %tobool.not = icmp eq i8 %4, 0
  %cmp2 = icmp eq i64 %indvars.iv, %2
  %cmp3 = icmp uge i64 %indvars.iv, %2
  %cond = select i1 %tobool.not, i1 %cmp3, i1 %cmp2
  %5 = load ptr, ptr %m_nodes.i, align 8
  %6 = load ptr, ptr %m_nodes.i8, align 8
  %cond10.in.v = select i1 %cond, ptr %5, ptr %6
  %cond10.in = getelementptr inbounds ptr, ptr %cond10.in.v, i64 %indvars.iv
  %cond10 = load ptr, ptr %cond10.in, align 8
  %7 = load ptr, ptr %m_ctx, align 8
  tail call void @_ZN6spacer10iuc_solver7push_bgEP4expr(ptr noundef nonnull align 8 dereferenceable(398) %7, ptr noundef %cond10)
  %indvars.iv.next = add nuw nsw i64 %indvars.iv, 1
  %exitcond.not = icmp eq i64 %indvars.iv.next, %wide.trip.count
  br i1 %exitcond.not, label %for.end, label %for.body, !llvm.loop !9

for.end:                                          ; preds = %for.body, %entry, %_ZNK6spacer11prop_solver9level_cntEv.exit
  ret void
}